; Function Attrs: nounwind uwtable
define ptr @l_Lean_MVarId_change___lambda__1___boxed(ptr noundef %0, ptr noundef %1, ptr noundef %2, ptr noundef %3, ptr noundef %4, ptr noundef %5, ptr noundef %6, ptr noundef %7) local_unnamed_addr #0 {
  %9 = load ptr, ptr @l_Lean_MVarId_replaceTargetDefEq___closed__2, align 8, !tbaa !10
  %10 = ptrtoint ptr %0 to i64
  %11 = and i64 %10, 1
  %.not.i.i = icmp eq i64 %11, 0
  br i1 %.not.i.i, label %12, label %lean_inc.exit.i.i

12:                                               ; preds = %8
  %.val.i.i.i = load i32, ptr %0, align 4, !tbaa !4
  %13 = icmp sgt i32 %.val.i.i.i, 0
  br i1 %13, label %14, label %16, !prof !9

14:                                               ; preds = %12
  %15 = add nuw i32 %.val.i.i.i, 1
  store i32 %15, ptr %0, align 4, !tbaa !4
  br label %lean_inc.exit.i.i

16:                                               ; preds = %12
  %.not.i.i.i = icmp eq i32 %.val.i.i.i, 0
  br i1 %.not.i.i.i, label %lean_inc.exit.i.i, label %17

17:                                               ; preds = %16
  tail call void @lean_inc_ref_cold(ptr noundef nonnull %0) #4
  br label %lean_inc.exit.i.i

lean_inc.exit.i.i:                                ; preds = %17, %16, %14, %8
  tail call void @lean_inc_heartbeat() #4
  %18 = tail call noalias ptr @mi_malloc_small(i64 noundef 48) #4
  %19 = icmp eq ptr %18, null
  br i1 %19, label %20, label %l_Lean_MVarId_change___lambda__1.exit

20:                                               ; preds = %lean_inc.exit.i.i
  tail call void @lean_internal_panic_out_of_memory() #5
  unreachable

l_Lean_MVarId_change___lambda__1.exit:            ; preds = %lean_inc.exit.i.i
  %21 = getelementptr inbounds nuw i8, ptr %18, i64 4
  store i32 1, ptr %18, align 4, !tbaa !4
  store i32 -184549328, ptr %21, align 4
  %22 = getelementptr inbounds nuw i8, ptr %18, i64 8
  store ptr @l_Lean_MVarId_replaceTargetDefEq___lambda__1, ptr %22, align 8, !tbaa !10
  %23 = getelementptr inbounds nuw i8, ptr %18, i64 16
  store i16 8, ptr %23, align 8, !tbaa !14
  %24 = getelementptr inbounds nuw i8, ptr %18, i64 18
  store i16 3, ptr %24, align 2, !tbaa !14
  %25 = getelementptr inbounds nuw i8, ptr %18, i64 24
  store ptr %0, ptr %25, align 8, !tbaa !10
  %26 = getelementptr inbounds nuw i8, ptr %18, i64 32
  store ptr %9, ptr %26, align 8, !tbaa !10
  %27 = getelementptr inbounds nuw i8, ptr %18, i64 40
  store ptr %1, ptr %27, align 8, !tbaa !10
  %28 = tail call ptr @l_Lean_MVarId_withContext___at___private_Lean_Meta_SynthInstance_0__Lean_Meta_synthPendingImp___spec__2___rarg(ptr noundef %0, ptr noundef nonnull %18, ptr noundef %3, ptr noundef %4, ptr noundef %5, ptr noundef %6, ptr noundef %7) #4
  %29 = ptrtoint ptr %2 to i64
  %30 = and i64 %29, 1
  %.not = icmp eq i64 %30, 0
  br i1 %.not, label %31, label %lean_dec.exit

31:                                               ; preds = %l_Lean_MVarId_change___lambda__1.exit
  %32 = load i32, ptr %2, align 4, !tbaa !4
  %33 = icmp sgt i32 %32, 1
  br i1 %33, label %34, label %36, !prof !9

34:                                               ; preds = %31
  %35 = add nsw i32 %32, -1
  store i32 %35, ptr %2, align 4, !tbaa !4
  br label %lean_dec.exit

36:                                               ; preds = %31
  %.not.i = icmp eq i32 %32, 0
  br i1 %.not.i, label %lean_dec.exit, label %37

37:                                               ; preds = %36
  tail call void @lean_dec_ref_cold(ptr noundef nonnull %2) #4
  br label %lean_dec.exit

lean_dec.exit:                                    ; preds = %37, %36, %34, %l_Lean_MVarId_change___lambda__1.exit
  ret ptr %28
}